ccopy_reg
_reconstructor
p0
(clrsgd
LogisticRegressionSGD
p1
c__builtin__
object
p2
Ntp3
Rp4
(dp5
Veta
p6
F0.01
sVweight
p7
(lp8
F-0.0024039861983018588
aF0.0
aF0.0
aF0.0
aF-0.0020175062235233297
aF-0.008665045665433722
aF0.007621461336683895
aF-0.008845248574608373
aF-0.005074883831220763
aF0.007621461336683895
aF-0.002268784186356355
aF-0.005960440398493284
aF0.0
aF-0.002290214215044633
aF0.006808033618695284
aF-0.00201968301027003
aF-0.0023065497370575124
aF0.0
aF-0.0017818856200265871
aF0.0
aF-0.0048188030117419685
aF0.0
aF0.0
aF0.0
aF-0.0020712459149745807
aF0.0
aF0.0
aF0.001759858321713631
aF0.0
aF0.0
aF0.007823673633626554
aF-0.0011733326665995735
aF-0.003974510896927167
aF-0.004289603842481539
aF-0.0037638430382641477
aF0.006743444376951782
aF0.0
aF0.0
aF0.0
aF0.0
aF0.0
aF-0.003020485872227864
aF0.006475719402604761
aF0.0
aF0.0
aF0.0
aF-0.004651457885619052
aF-0.0030593214603458004
aF0.0
aF0.0
aF0.0
aF0.0
aF-0.0029906876279973092
aF-0.004344957364845811
aF0.013452102713086181
aF0.0
aF-0.0053621776020543925
aF-0.00713389923952168
aF0.007506270527318847
aF0.008869018949261332
aF0.0002654295299875932
aF0.0034515042897480617
aF-0.0070907613026421085
aF-0.0070279384377063174
aF0.0
aF0.0
aF0.0
aF0.0
aF0.005559857943058677
aF0.013841174577115941
aF-0.008730844773929615
aF0.0
aF0.0
aF-0.0007875117995410055
aF0.0
aF0.0008418127451243968
aF0.0
aF-0.0002400853792939564
aF0.0
aF0.0
aF0.0
aF0.0
aF-0.0019672949989785775
aF0.0
aF0.0
aF-0.007032712776434176
aF-0.004875475993265963
aF-0.0039159583083516435
aF0.0
aF0.0
aF0.0016581876763160257
aF-0.002303079676401297
aF0.0
aF-0.003280133023119275
aF0.0029654552438609224
aF0.0
aF0.0005877538925809758
aF0.0
aF0.003188239319753838
aF-0.0028670716404415016
aF-0.0020350740540401374
aF0.0
aF-0.002251867855123236
aF0.0
aF-0.004205202851706602
aF-0.0019524700305739362
aF-0.001480032663748616
aF-0.0015569284703587588
aF-0.01439767678912723
aF0.0
aF0.0
aF0.0
aF-0.00469787453427754
aF0.004613771678765831
aF0.0
aF0.0
aF-0.013127636471591177
aF0.0
aF0.0
aF-0.0010837201617232624
aF-0.002297621862160195
aF0.013999038245655241
aF-0.014872054232123256
aF0.0
aF-0.004056189935646107
aF-0.001808195555280458
aF0.014520567777011047
aF-0.0020614406684325267
aF0.0
aF0.007735724460551184
aF0.0
aF0.0
aF-0.0013170846592119364
aF0.0
aF0.0
aF-0.0024765897176548786
aF0.0
aF0.0
aF0.0
aF0.0
aF-0.0011215537864018494
aF0.005529442075637681
aF-0.0006723934326729583
aF0.014266917283063252
aF0.0
aF-0.01549150631343757
aF-0.0024140842033548125
aF-0.002586936415503762
aF0.0
aF-0.003591440955862473
aF-0.0032588241813543933
aF0.0
aF0.005627411770498862
aF0.0
aF-0.007289191181241144
aF-0.0024191309287069584
aF0.004809309311841074
aF0.0
aF0.009307713126491682
aF0.005985257859262567
aF0.004694499025444004
aF0.0
aF-0.006055528636250232
aF-0.0023065497370575124
aF-0.004245175734712769
aF-0.01695744328794873
aF0.0
aF0.0
aF0.0075108242001020575
aF-0.008748639482044048
aF-0.0036431668101910408
aF-0.006415070224238457
aF-0.0002974521581725143
aF0.0
aF-0.0021666061688944377
aF0.007741379936640919
aF0.0
aF-0.0038556765683718714
aF0.0012957800471769796
aF-0.0024110864431328414
aF-0.007693403369531842
aF0.0
aF0.0
aF-0.005374059023284038
aF0.007989913080345192
aF-0.006065217781190062
aF-0.004301960728047618
aF-0.0025924912994990564
aF-0.0033074489127125177
aF0.007931164634893855
aF-0.0044755001495517515
aF-0.008122648304097226
aF-0.0023252961711623926
aF-0.01439899101834397
aF-0.0029927693424889362
aF-0.005952663366018403
aF-0.00269178220380555
aF0.0
aF-0.014268305552952951
aF0.0
aF-0.002563067934678463
aF0.0
aF-0.0015875362174608855
aF0.0
aF0.0
aF0.0
aF-0.002464141719795507
aF0.0
aF0.0
aF0.003946219158852673
aF0.0
aF0.0054878124358149
aF0.0
aF-0.007009853718164835
aF0.004941783087573917
aF0.0
aF-0.0023749139445669964
aF-0.0020344381347122847
aF-0.0004359992385714138
aF0.0
aF-0.01198916955593887
aF-0.0020055311612714962
aF0.0
aF0.0004105323520922368
aF0.0
aF0.0
aF0.0016900209828126578
aF-0.00045969147150034433
aF-0.0016024345970412825
aF0.004131598180356078
aF0.0
aF-0.004337575157481539
aF0.0
aF0.0
aF0.0
aF0.0
aF0.0
aF0.0
aF0.0
aF-0.0029219987663817665
aF-0.0015534572549367152
aF-0.0027437696453291205
aF-0.005015786421649883
aF0.0
aF0.0
aF0.007664512747247914
aF0.009249201690939674
aF0.0
aF-0.0009386304634435552
aF0.0
aF0.0
aF0.0
aF0.0025938940935884987
aF0.0
aF-0.003020485872227864
aF0.0073634619946612405
aF0.0026931740800337973
aF-0.00453394882985101
aF-0.0026547415389702738
aF-0.005619476369480691
aF0.0
aF-0.0016872189042594677
aF0.0
aF0.0
aF-0.005505430047563899
aF0.0
aF0.007709841695779049
aF0.0
aF0.0
aF0.0
aF0.00906915900997433
aF0.0
aF0.0
aF-0.004640588993543479
aF-0.005708053724803125
aF-0.007725703481861815
aF0.0
aF-0.003208714742743776
aF0.0
aF0.0
aF0.0
aF-0.001795591220872243
aF-0.007833824348620148
aF0.0
aF-0.0013207820977400074
aF0.0
aF0.0
aF-0.004487080785620122
aF-0.0024653612523236118
aF0.0
aF0.0
aF0.0
aF0.0
aF-0.0028705300536263256
aF0.0
aF0.004155435428640717
aF-0.0025924912994990564
aF0.007506270527318847
aF0.0
aF0.0018758752855802616
aF0.0
aF0.0
aF-0.003689828015231532
aF0.008294849870175435
aF0.005781800085385917
aF-0.0023749139445669964
aF-0.007444646414267182
aF0.0
aF0.0
aF0.007506270527318847
aF0.005805543595568567
aF-0.0006007557806019413
aF0.0
aF0.0
aF-0.003772302611483914
aF-0.0010560340667164897
aF-0.005808361791398294
aF0.00023263576935661327
aF-0.007629955019281813
aF0.0
aF0.0
aF-0.006822525589087653
aF0.0
aF0.0
aF-0.011405492844720116
aF-0.00368841651255037
aF0.004834223157439855
aF-0.007699775822501383
aF0.0
aF0.013634716494426718
aF0.0
aF-0.006801214413935128
aF0.0
aF-0.0038827143211568856
aF0.0
aF-0.027135139989461928
aF-0.002415909590188363
aF0.007857675278919004
aF-0.0028544678266510305
aF-0.0020930574111872094
aF-0.0031069145098734305
aF0.0
aF0.0
aF0.0
aF-0.007071225962373432
aF0.0
aF0.0
aF-0.006335056988460799
aF-0.003161977977892848
aF-0.004651213463460612
aF-0.008912208564441275
aF0.00462239651333403
aF0.0
aF0.0
aF0.0
aF-0.0051601639404596795
aF-0.01964898531290991
aF-0.012446427976681445
aF-0.002299428236497014
aF0.0
aF0.0
aF0.0014889897833121838
aF0.005177901756533307
aF0.0
aF0.0
aF0.0
aF-0.0041287867627973944
aF-0.008556535038704027
aF0.007714318213856298
aF0.0
aF-0.012641404316683839
aF0.02948532693031272
aF-0.0040670039506118015
aF-0.004020049587951535
aF-0.0031155624253040685
aF0.0
aF-0.003847777387464468
aF0.0
aF0.0
aF-0.00348592183091527
aF0.0
aF-0.002415909590188363
aF0.013857005713055762
aF-0.010226856303231122
aF-0.0024164645831210264
aF-0.002179151538371164
aF-0.010706376699135323
aF-0.010912095161334063
aF0.0
aF-0.002234879572857582
aF0.0
aF0.0
aF0.0
aF0.0
aF-0.010098507788516897
aF-0.003273719650275138
aF0.0
aF0.005705916759565634
aF-0.0023033376135422235
aF-0.004728519403951585
aF-0.0038827143211568856
aF-0.0020344381347122847
aF0.0
aF0.0
aF0.0009147545164428089
aF0.006900615052289836
aF-0.0025083957387668256
aF-0.0029171044449647094
aF0.0
aF0.0
aF0.0
aF-0.011574832297435098
aF0.0
aF0.0
aF0.0013184628099484454
aF0.0027986963465513716
aF0.0
aF0.006100692135432291
aF-0.003082594066154522
aF0.006108171229739497
aF-0.002464141719795507
aF0.0
aF0.0
aF0.01320828794054641
aF0.0
aF0.0
aF0.0
aF-0.008434144961711954
aF-0.012426906959347818
aF-0.01556857912585101
aF-0.0037403136498200644
aF0.0
aF0.0
aF0.0
aF0.0
aF0.0
aF0.0
aF0.0
aF-0.015300102741846042
aF-0.0038225334850660623
aF-0.004322972873630484
aF-0.004777977038628883
aF0.0
aF-0.002266974414925505
aF-0.020621839624803986
aF0.0
aF0.0
aF-0.0029171044449647094
aF0.0
aF-0.00423627818034949
aF0.005322400625537552
aF0.005094187897984827
aF0.007506515909295053
aF0.00874947864918872
aF0.0
aF-0.0026668837041045608
aF0.0
aF-0.01762183199646962
aF0.007724244551994236
aF-0.003573259548042454
aF-0.001368865304288448
aF0.006382106393785394
aF0.0075086925651860915
aF-0.002155677232997941
aF-0.0015639344745538722
aF-0.001126676656031508
aF-0.004976743657989825
aF0.005849834179506703
aF-0.0031125331832117255
aF0.0
aF-0.003747240698124927
aF-0.0031963703973366163
aF-0.002245981001957913
aF0.0
aF-0.0021401650570410454
aF0.0020267334699232134
aF-0.0037403136498200644
aF-0.007118203996753088
aF0.0
aF0.0
aF0.0
aF0.0
aF0.006729927914776817
aF0.0
aF-0.0005455536923619029
aF0.0
aF-0.00990838392703023
aF0.0062662695684934655
aF-0.005652036271767895
aF-0.004245175734712769
aF-0.002612983910459509
aF-0.006339944498137332
aF-0.0014512671776695204
aF0.0
aF0.0
aF0.0
aF-0.0038034259626595324
aF0.0
aF-0.0038827143211568856
aF-0.0035535541105682893
aF-0.006369189775354988
aF0.0
aF-0.00017439660683716673
aF-0.0025083957387668256
aF-0.0015569284703587588
aF0.01108017648505032
aF0.0017159368987401044
aF-0.0009919575772177635
aF0.005572736329434563
aF0.0
aF0.005809105468900585
aF-0.003993162411116587
aF0.0
aF0.0
aF-0.0038101501554776347
aF0.0
aF0.0
aF0.0
aF0.0
aF0.0
aF-0.007542373505372926
aF-0.005798182673405098
aF-0.017943756623330625
aF-0.010663855400258826
aF-0.006511591798285007
aF0.0027707426969147526
aF0.00039523157969463193
aF0.0
aF0.0
aF-0.0025083957387668256
aF0.0
aF0.0
aF0.0
aF0.005705916759565634
aF-0.0009045397005734434
aF-0.0028670716404415016
aF-0.0036303322197636023
aF0.0
aF0.0
aF0.0007588116535455266
aF0.006955437227192079
aF-0.007164408454252174
aF-0.0035481616455639554
aF0.0
aF0.0
aF0.0
aF-0.007454372917421863
aF0.0
aF-0.0052717287155449235
aF-0.003646193607954417
aF-0.010607395857140073
aF0.005247446188445927
aF0.0
aF0.0
aF-0.004341046666169573
aF-0.002291077384601747
aF-0.004583941206814671
aF-0.002117618166196638
aF0.012748014616170113
aF0.0036921629754862527
aF-0.0010329731625813307
aF0.0
aF-0.00880803358778814
aF-0.041182701157045296
aF-0.004093632720556391
aF-0.01032529103737825
aF0.005083048841964425
aF0.0
aF0.00024897224793599907
aF0.00020902899288427056
aF-0.0031988908899463738
aF-0.0030858869708088633
aF-0.013986008993956477
aF0.0
aF0.0
aF0.0018116468509815527
aF0.0
aF0.0
aF0.0
aF-0.020616533779493133
aF-0.0044755001495517515
aF0.0
aF-0.0051534714645477715
aF0.0
aF-0.008721910091002302
aF-0.0028134166283762313
aF0.0
aF0.004036584713755519
aF-0.002289276814813095
aF0.0011455085410372763
aF0.004860471183627598
aF-0.002326453034001192
aF-0.002296960086963448
aF0.0
aF-0.00011179398271828371
aF0.0
aF-0.009432599502802827
aF-0.010578475958286057
aF-0.002327586137973084
aF0.0
aF0.0
aF0.0
aF0.0
aF0.0
aF0.003708823837409358
aF-0.0023740471603841346
aF0.0016467616507228572
aF0.005657304503295736
aF-0.002324785569325892
aF0.0
aF-0.0021666061688944377
aF0.0
aF-0.0037163120393752464
aF-0.006335617493660699
aF-0.0062512012419673624
aF0.0
aF-0.004627853312373305
aF0.0
aF0.0
aF0.0
aF-0.0020677436770669784
aF-0.005847732888025988
aF0.0
aF0.012874610904229483
aF0.0
aF0.0
aF-0.005014621858348325
aF0.0
aF0.0
aF0.00013177043529964032
aF0.0
aF0.004918928885524569
aF0.00608145270422571
aF0.00344347644187367
aF0.0
aF0.0
aF0.007745596874593893
aF-0.005941792633160327
aF0.0
aF-0.003249883141805477
aF-0.0012063884492316997
aF0.0
aF0.0
aF0.0
aF-0.00046678323478947955
aF0.0032389675035250105
aF-0.002259843639195939
aF-0.002643942061075603
aF-0.007428523651115935
aF-0.0008736595622855545
aF-0.010247998768139248
aF0.0
aF-0.001102164643299047
aF-0.004427763730170529
aF-0.0016186264938202358
aF0.0
aF-0.003283008341384285
aF-0.017835214560672136
aF0.007614892842616743
aF0.005203283307481616
aF-0.015666602162546173
aF0.0009273395295250602
aF0.0
aF0.0
aF-0.003214155088819598
aF0.0
aF-0.011746987195933542
aF0.0
aF-0.015944739888186756
aF-0.08912879358216735
aF0.007637168648008341
aF0.007909513125625505
aF0.007614892842616743
aF0.006434755817885789
aF-0.002282941410921446
aF0.015477105161723723
aF0.0
aF-0.0074289486435586615
aF-0.0019906035694631434
aF0.0002731756323844565
aF0.0
aF0.0
aF-0.005151427519332634
aF-0.002301459272382773
aF-0.0022353692518902284
aF0.005015931524884261
aF-0.01319897819219404
aF-0.007875615810277145
aF-0.006950911590631197
aF-0.007286675737171133
aF0.0
aF0.0
aF0.0
aF-0.004107771208901753
aF-0.005346061765050994
aF-0.005687712298759589
aF-0.037029694273186815
aF-0.0024501209512746962
aF0.0018929433458342634
aF-0.009350976142817715
aF-0.0019406524712444017
aF-0.0023299636158250754
aF0.002166905194609804
aF-0.002324785569325892
aF0.0
aF0.0
aF0.001977196162602482
aF0.0
aF-0.004248735213310607
aF0.0
aF-0.0031771700351071225
aF-0.004172362641100935
aF0.0
aF-0.024337667727799526
aF0.0
aF-0.0031125331832117255
aF-0.002448868740734566
aF-0.004334185730496385
aF-0.00453394882985101
aF0.004079658158048085
aF0.0
aF-0.000679929573168422
aF-0.0011426378361275012
aF0.0
aF-0.021970039656168578
aF-0.0021698889849059433
aF0.014563472383273065
aF-0.00067247856523802
aF0.0
aF0.00681210575232613
aF-0.0028120258465962147
aF0.008085042261393317
aF0.0
aF-0.0020349617965902053
aF-0.002155677232997941
aF-0.0009279919446750734
aF0.0
aF0.0
aF0.0014607744644013427
aF0.005962397760056454
aF-0.0031048133811495105
aF0.015829996406565655
aF-0.008194042499442238
aF-0.01280696019281998
aF-0.0024107616267369154
aF0.0009491131033898658
aF-0.010306914270278475
aF0.0
aF0.0
aF0.0
aF-0.006305646000780801
aF0.0
aF-0.004109540555372406
aF-0.039645948220660025
aF-0.011514155641392396
aF0.0
aF-0.001809751273118449
aF0.0
aF-0.0031178887604676737
aF-0.008858895184647858
aF-0.013382542949016802
aF0.0
aF0.005559857943058677
aF0.0
aF-0.00505099555854242
aF-0.003208714742743776
aF-0.006473555040495782
aF-0.0015316021952099922
aF-0.0023521355965309787
aF0.005044630427729712
aF0.0
aF-0.0030674728322631784
aF-0.0807081398553599
aF0.008085042261393317
aF-0.006374202678949635
aF0.0
aF-0.004738281706203631
aF-0.01871090477305744
aF-0.001809751273118449
aF-0.0018790046279667258
aF-0.007266679436260902
aF-0.00067247856523802
aF-0.0008677162978447729
aF0.0038931372229496944
aF-0.005988688422325016
aF0.0
aF-0.0001574110748407281
aF-0.0031192053972824967
aF0.0
aF-0.013379700480973138
aF-0.00030545075041644824
aF0.0
aF0.00030924481323435114
aF-0.0021144199909198507
aF-0.0018936287959877664
aF-0.0033158916809159656
aF-0.02086079618366843
aF0.0
aF-0.0022883479599184867
aF0.0
aF-0.004653181613757504
aF0.0
aF0.0
aF0.0
aF-0.0017361869804622414
aF-0.0020212160408488887
aF0.0
aF0.0
aF0.005383652406654997
aF-0.0028847075085280294
aF0.0
aF-0.012195905274949872
aF0.0
aF-0.01879056426843603
aF-0.003214155088819598
aF-0.01597376499282852
aF-0.010772775184310298
aF-0.01119630019083602
aF-0.010629181274230856
aF0.0012137115258091557
aF-0.0023661497186107435
aF0.005382785885864348
aF-0.005156559468772434
aF0.0
aF0.00022210713764562605
aF0.003799626540551932
aF0.0
aF0.0
aF0.0
aF-0.05442086080694431
aF0.0
aF-0.004357000214552143
aF0.0
aF0.0
aF-0.00867433217940971
aF0.0
aF-0.007785664097028271
aF0.0
aF-0.003934589997957155
aF-0.0028799548172280805
aF-0.004797243030025198
aF0.0
aF-0.011180975298423792
aF0.0
aF0.0
aF0.0
aF-0.004115059088150621
aF-0.0060581915387680416
aF0.0
aF0.003015196323544699
aF-0.0017219231387977196
aF-0.00224975070454899
aF-0.0014579378002660855
aF-0.005469368314949005
aF-0.0018228992479375266
aF-0.004198932363198583
aF-0.027993142353121874
aF-0.003689828015231532
aF-0.001270895856403678
aF-0.0011553977524872364
aF-0.009084274168009282
aF-0.002076235461019939
aF-0.026687592005459976
aF0.0
aF-0.0022133519820572455
aF-0.020713032081286043
aF-0.022763351973586022
aF0.0
aF0.0
aF0.007767143479289154
aF0.0020503500280015215
aF0.016702790225248842
aF0.0
aF-0.05287483419498622
aF0.0
aF0.006100692135432291
aF0.004182606655378815
aF0.0
aF-0.008869924022601512
aF0.0
aF-0.025046885079238388
aF-0.005668027277446945
aF-0.0021608783755481327
aF0.0
aF0.0
aF0.005531150762708441
aF-0.011681617766557156
aF-0.0018835744121285113
aF0.004442184961140261
aF-0.003021042456509454
aF0.008860573174638718
aF-0.002222123232857143
aF-0.03182442048114655
aF0.005408548186762743
aF0.0
aF-0.008211839370331637
aF-0.016557409942577882
aF-0.0032305059753699357
aF0.0
aF0.0028622094808118392
aF-0.03492645923596338
aF0.0
aF-0.00250810442697363
aF-0.0028544678266510305
aF0.0
aF-0.0031192053972824967
aF-0.002643942061075603
aF-0.004806134433729639
aF-0.0018935200185549517
aF0.0
aF-0.0024523021511734674
aF0.0
aF-0.00191566892120387
aF-0.0046417255727663215
aF-0.004778870952531994
aF0.0
aF0.0
aF-0.002106894032301027
aF0.0
aF0.0
aF-0.0033183011152738335
aF-0.00890517975848604
aF0.0
aF0.0
aF-0.003208139628929893
aF0.0
aF-0.005105672224916586
aF0.00608192766976913
aF0.0
aF0.0
aF0.0
aF0.0
aF0.0
aF-0.002547236443030704
aF-0.0022249134836701324
aF0.005833007222590156
aF-0.012121126409348409
aF0.0
aF0.0
aF-0.001809751273118449
aF0.006743444376951782
aF-0.004331292690504708
aF0.0
aF0.005993338104489504
aF-0.01704899802171959
aF-0.010036946755428353
aF-0.0017048144511980995
aF-0.002388268114130403
aF-0.0010712102302200574
aF-0.0013620668853750384
aF-0.003454153214749433
aF0.010311707080417528
aF0.0
aF0.0
aF0.0
aF0.0
aF-0.004875475993265963
aF0.0
aF0.0
aF-0.006769967612942778
aF0.0
aF0.0
aF0.006808033618695284
aF0.0
aF0.0
aF-0.002547236443030704
aF0.0
aF-0.002106894032301027
aF-0.0036439723360615823
aF-0.011656929500372313
aF-0.001479797716373766
aF-0.006226291407658246
aF-0.0015302773798278346
aF-0.0068607949565278065
aF0.0
aF0.0
aF0.0
aF0.0
aF0.0
aF-0.004251887973721973
aF0.0
aF0.0
aF0.0
aF-0.015589666943520564
aF-0.0019524700305739362
aF-0.009243605529104271
aF-0.00499355165323428
aF0.0
aF0.0
aF-0.0022107284381336044
aF0.0
aF0.0026383151963660406
aF1.244270372626876e-05
aF0.008226420134391876
aF0.006743444376951782
aF0.0
aF-0.008816122464079056
aF0.0027638758495821987
aF0.006209092441983124
aF-0.0011488109310800975
aF0.0
aF-0.0024164645831210264
aF0.0
aF0.0
aF0.007345426414104612
aF0.0
aF0.007909513125625505
aF-0.0030948596070113805
aF-0.004607097700967729
aF-0.005581811112865059
aF-0.005225645852453223
aF-0.015929053926831867
aF0.0033486010857662826
aF0.0033533031158761344
aF0.0007087818582172016
aF-0.004721561543169674
aF-0.0028792058277065063
aF-0.007115195955913562
aF-0.003615833364999379
aF-0.002351679807141923
aF0.0
aF-0.004357000214552143
aF0.009403327395040125
aF0.0
aF-0.0013050610149047362
aF-0.009979249519901865
aF0.00012071328765817825
aF0.0
aF-0.008806127682848117
aF0.0
aF-0.004289200016778097
aF-0.0003484950990634576
aF0.011514251307107704
aF0.0
aF-0.006363767623158998
aF0.01142675345094463
aF0.0
aF0.0
aF0.01055388822301157
aF0.0
aF0.006743444376951782
aF0.0
aF0.0
aF0.0
aF-0.004245175734712769
aF-0.003646193607954417
aF0.0018652629844376864
aF-0.006625207664966812
aF0.0
aF-0.004976743657989825
aF0.0027164667045898668
aF-0.004004086908829355
aF0.0
aF-0.002544776258870076
aF-0.00215618791384789
aF0.0
aF0.020544039354862
aF-0.007065542088973865
aF0.007637168648008341
aF-0.009154031189591743
aF0.0
aF0.0
aF-0.001393259905592247
aF0.0
aF0.0
aF0.0
aF-0.001771910143773871
aF0.0
aF0.006900615052289836
aF0.0
aF0.0
aF-0.0050137927442540555
aF0.0
aF-0.004778870952531994
aF0.0
aF0.005276655295045228
aF0.0015119312611435783
aF-0.003983270499553706
aF-0.003100665585714953
aF-0.004973907515185909
aF0.0
aF0.0
aF-0.006573758088981592
aF0.006743444376951782
aF-0.003208714742743776
aF0.0
aF0.007496000626628745
aF-0.00348592183091527
aF-0.02852245667898798
aF-0.012446427976681445
aF0.0
aF0.0
aF0.0
aF0.0
aF0.0
aF0.0
aF0.0
aF-0.415109643280753
aF-0.09704973151968879
aF0.0
aF-0.01065209406277418
aF0.0
aF0.0
aF-0.0009278576656513171
aF-0.0002400853792939564
aF0.0
aF0.007714318213856298
aF-0.008806127682848117
aF-0.001393259905592247
aF0.004363535155279806
aF-0.0014091973510185704
aF0.0
aF-0.002217889350722995
aF0.016742617885250242
aF0.0039314185303555675
aF0.0
aF0.0
aF-0.0023590330498141107
aF-0.018644882413413257
aF-0.005604727684352924
aF0.007348546118470951
aF-0.001436048022430439
aF0.006434755817885789
aF0.0031226553459987867
aF-0.00279818272855429
aF0.011317915238636319
aF0.0
aF0.0
aF0.0
aF0.005487984172580547
aF-0.01680505398030671
aF-0.005159918969845028
aF0.005276655295045228
aF0.007621461336683895
aF-0.005430224257720747
aF-0.015270004162484203
aF0.0014623693290610226
aF0.0
aF0.007977304572536436
aF-0.0006998158607958637
aF-0.005459957027097724
aF0.0
aF0.0
aF0.0
aF-0.0037403136498200644
aF0.0
aF0.0
aF0.0
aF0.012634366437575227
aF0.0
aF-0.004093632720556391
aF0.0
aF-0.0013447868653459166
aF-0.010777376053647116
aF0.0
aF-0.002907410428179641
aF-0.0020350740540401374
aF-0.005841731266780938
aF0.0
aF-0.0041125920179154295
aF-0.004797243030025198
aF0.005627411770498862
aF-0.00012285377160328083
aF-0.008730844773929615
aF-0.0031069145098734305
aF0.013999038245655241
aF-0.001480032663748616
aF-0.014872054232123256
aF-0.0053621776020543925
aF-0.0015534572549367152
aF-0.0019524700305739362
aF0.017553077405058008
aF-0.00522101353464359
aF-0.0024765897176548786
aF-0.00697499977630109
aF0.0
aF0.0
aF0.006382106393785394
aF-0.0023749139445669964
aF-0.003196527447697863
aF0.0
aF0.0
aF-0.0021768996780544415
aF-0.0021768996780544415
aF-0.02228288158001842
aF0.0
aF-0.0039159583083516435
aF0.00020902899288427056
aF-0.0020614406684325267
aF-0.005794963325326348
aF-0.003719589618497431
aF-0.002251867855123236
aF-0.0029333159789095165
aF0.0
aF-0.005506141680215912
aF0.0
aF0.0
aF0.005627411770498862
aF-0.004947438646280862
aF0.0
aF-0.003295810613169236
aF0.0
aF-0.003249883141805477
aF-0.02228288158001842
aF0.006790992922675599
aF0.0
aF-0.009830941736864737
aF0.005740600347405429
aF-0.0015534572549367152
aF0.0009575909685697629
aF-0.004651457885619052
aF0.0
aF-0.05144750345654706
aF0.0
aF-0.004814725344966498
aF0.0
aF0.0
aF0.007619544894619851
aF0.0
aF-0.0009499968608482648
aF0.0
aF-0.002268784186356355
aF0.0
aF0.0
aF0.0
aF0.0015320831884605623
aF0.0
aF0.0
aF-0.00499355165323428
aF-0.0021144199909198507
aF-0.002327586137973084
aF0.005220895693947995
aF-0.0037638430382641477
aF0.0011455085410372763
aF-0.001584880453104089
aF-0.0019906035694631434
aF0.0
aF-0.004216545615175828
aF-0.006473555040495782
aF0.0
aF-0.004653181613757504
aF0.0
aF-0.0035535541105682893
aF-0.006823115322653008
aF-0.002179151538371164
aF0.0
aF0.0
aF0.0
aF0.0
aF-0.0011475237302142616
aF0.002462619254841993
aF-0.01456332413978843
aF0.0
aF0.0
aF0.0
aF-0.006903659037726535
aF0.0
aF-0.0020614406684325267
aF0.0
aF0.0
aF-0.002729557019646123
aF0.0
aF0.006108171229739497
aF-0.004270788267003097
aF0.0
aF-0.01319897819219404
aF-0.002622689840247766
aF0.0
aF-0.004427763730170529
aF-0.0019044414241267918
aF-0.005749865008941811
aF-0.014319363057437084
aF-0.005749865008941811
aF0.008055258755980033
aF0.0
aF0.0057118575904743585
aF-0.0020930574111872094
aF0.0
aF0.009300507302946315
aF0.0
aF0.0
aF0.0024900049973521987
aF0.0
aF0.00753397875613456
aF-0.002268784186356355
aF-0.005505430047563899
aF0.0
aF-0.01597376499282852
aF-0.002288965354554756
aF0.0
aF0.016742617885250242
aF-0.002131704379201419
aF-0.003020485872227864
aF0.0
aF0.0
aF-0.004584183724422887
aF-0.00833149968311659
aF-0.00227658247791175
aF0.0
aF0.0
aF0.0
aF0.006743444376951782
aF0.0
aF0.010904987399207883
aF-0.0005349392317039331
aF0.003772544319943487
aF0.0
aF0.0
aF-0.0028670716404415016
aF-0.0070907613026421085
aF0.01936518382690776
aF-0.0037403136498200644
aF0.008107552945670402
aF0.0
aF-0.0024523021511734674
aF0.0013184628099484454
aF-0.0029333159789095165
aF0.0
aF-0.006534220802319743
aF-0.005978896673695016
aF-0.0044755001495517515
aF0.0
aF0.0
aF0.0
aF0.005627411770498862
aF0.005627411770498862
aF0.0
aF0.0
aF0.0
aF0.0
aF-0.007266679436260902
aF-0.00612593324182218
aF-0.004915466072464883
aF-0.01173038635811903
aF0.0
aF-0.002448868740734566
aF-0.006438849555048556
aF0.0
aF-0.003082594066154522
aF-0.008721910091002302
aF-0.007592681693573156
aF0.007621461336683895
aF0.0
aF0.0
aF0.0
aF-0.06404381630630572
aF0.0
aF0.0
aF-0.0030973524587799553
aF0.0
aF0.0012330977642236026
aF-0.002126426991918258
aF0.0
aF0.0
aF0.002969251040603812
aF-0.002864376512816931
aF-0.0061958464981440465
aF-0.00612593324182218
aF0.0
aF0.0
aF-0.0035923789382264907
aF-0.004442131031725551
aF0.0
aF-0.007531899819819106
aF0.0
aF0.004562888660745081
aF0.00555800814776659
aF0.0
aF0.005222937188108262
aF-0.005988688422325016
aF-0.002115425799212562
aF-0.0060763153769749865
aF-0.004757800637312709
aF-0.011047637239941828
aF-0.002369489694792627
aF-0.0020102630646773893
aF-0.19377393353414984
aF0.0
aF0.0
aF0.0
aF-0.0022297517346942164
aF-0.011592098323991913
aF-0.004830439435672546
aF-0.008434029975298355
aF0.0
aF-0.010935432838940363
aF-0.0031603962475171927
aF-0.003425597654504274
aF-0.008416941502254034
aF0.0
aF-0.004712299705364785
aF-0.017701669107717984
aF-0.00725253183117904
aF0.0
aF0.0
aF0.0
aF-0.005016492376927736
aF0.0
aF0.0
aF0.004928690693963242
aF0.0
aF-0.010813503694773671
aF-0.020805181456350883
aF0.005403579674802046
aF0.005668389925543802
aF-0.007266057087958161
aF0.004580610858413448
aF0.008022149867562098
aF0.0
aF0.005789244557120044
aF0.0
aF0.0
aF0.0075086925651860915
aF0.0
aF0.0
aF0.0
aF-0.003208714742743776
aF0.0
aF0.0
aF-0.0031069145098734305
aF0.0
aF0.0
aF-0.004651457885619052
aF0.005985257859262567
aF0.007857675278919004
aF0.0
aF0.0
aF0.0
aF0.0
aF0.0
aF0.0010142203320194637
aF-0.007718192661036348
aF-0.0032537169261362977
aF0.004451265768980072
aF-0.014827814544691335
aF-0.006478629150891994
aF0.0
aF-0.0015429909267424906
aF0.0
aF0.0
aF0.0
aF-0.010134728382143222
aF-0.015362264073219074
aF-0.0040186833857844976
aF-0.00191566892120387
aF0.0
aF0.0
aF0.0
aF0.0
aF-0.0024140842033548125
aF0.0
aF0.0
aF-0.0034980263914223264
aF-0.005459957027097724
aF0.0
aF-0.0032814213250958258
aF0.0011451372715427276
aF-0.0036431668101910408
aF0.0
aF-0.00279818272855429
aF-0.0022852756722550023
aF0.0
aF0.0
aF0.0
aF0.0
aF0.0
aF-0.07192414273649506
aF0.0
aF0.0
aF-8.369117546153928e-05
aF-0.0036431668101910408
aF-0.004773419042154607
aF-7.553143199681743e-05
aF-0.004207819337023874
aF0.0
aF0.0
aF-0.002184708277697952
aF-0.012661752149028429
aF0.0
aF0.004683112109525113
aF0.005210855236083101
aF-0.0027458514129364837
aF0.0
aF0.0
aF-0.0024794921736375074
aF0.0
aF-0.0031462209708112004
aF-0.0019524700305739362
aF-0.001799708689582101
aF-0.008290798624239022
aF0.0
aF-0.019528100353455133
aF-0.00201968301027003
aF0.0
aF0.0
aF0.006585538414086573
aF-0.0031566039814575927
aF-0.010136517286466468
aF-0.02475196054017677
aF-0.0010329731625813307
aF-0.001809751273118449
aF-0.001809751273118449
aF0.004727558565929865
aF0.0014485268031555866
aF0.0
aF0.0
aF-0.019380312084918323
aF0.0
aF0.0
aF0.0
aF0.0
aF0.0
aF0.0
aF0.003959808968508727
aF0.0
aF0.0
aF-0.0015900127171165064
aF0.0
aF-0.0038348141748916383
aF0.0009575909685697629
aF0.0
aF-0.0024653612523236118
aF-0.004316124147374907
aF-0.013794911702024248
aF-0.0033543797081514075
aF-0.004639760067564636
aF-0.011239818514386515
aF-0.0012081084536741586
aF-0.0015309154566294123
aF-0.017689855576474126
aF-0.0022852756722550023
aF0.0
aF0.005668389925543802
aF-0.0023996720830350106
aF-0.0034299880107895933
aF0.0
aF-0.0028624215592844443
aF0.0077664320643970886
aF0.016742617885250242
aF-0.004651457885619052
aF0.0
aF-0.008665335113148086
aF-0.0032814213250958258
aF-0.0032323813843488348
aF0.0
aF-0.002729557019646123
aF0.012858376081658175
aF0.0
aF0.0
aF0.0
aF-0.0024162169073483173
aF0.0
aF-0.0027403425614241166
aF-0.002553747901092745
aF0.0
aF-0.001727725289922619
aF0.0026562420130189913
aF0.0
aF-0.006808000219188953
aF-0.007902882945328097
aF-0.0063638709565769095
aF-0.02204578522641944
aF0.004511995053069924
aF-0.0049493684170006744
aF0.0
aF0.0
aF-0.0023615588935860187
aF-0.003646193607954417
aF-0.004953982876498782
aF0.004346563469692899
aF-0.0025226643217299964
aF0.0
aF-0.002106894032301027
aF-0.00652941494325923
aF-0.002310795504974473
aF-0.0015639344745538722
aF0.0
aF-0.0011507296361913865
aF-0.005794963325326348
aF0.0
aF0.0
aF-0.00191566892120387
aF0.0
aF0.0
aF-0.004778870952531994
aF-0.0036662600551780372
aF0.0
aF0.0
aF0.0
aF0.0
aF-0.01065209406277418
aF-0.0020102630646773893
aF-0.008701372173136603
aF-0.014801481213600313
aF0.0
aF0.0
aF0.0
aF-0.0023560134824549424
aF-0.002126426991918258
aF-0.016885859384385575
aF0.0
aF0.0
aF-0.004644079957391677
aF-0.0029190649404626616
aF-0.001809751273118449
aF0.005872111874033747
aF-0.011341217522024251
aF0.0
aF0.0
aF0.0
aF-0.0023749139445669964
aF0.0
aF0.0
aF-0.04200867525478132
aF-0.001808195555280458
aF-0.003117352735793904
aF-0.006342196573172858
aF0.0
aF0.0
aF0.0
aF-0.0031603962475171927
aF0.0
aF0.0
aF0.0
aF-0.0030973524587799553
aF0.0
aF0.007807467728702744
aF0.0
aF0.006743444376951782
aF0.0030178010363018527
aF0.0
aF0.0
aF0.0
aF0.003441570484466478
aF-0.00270795947163347
aF-0.006689494364434723
aF-0.007037314978078515
aF-0.0003176827580423586
aF-0.013864878023131636
aF-0.004755449597862333
aF0.006886045044282232
aF-0.0020102630646773893
aF0.0
aF-0.004205202851706602
aF-0.004651457885619052
aF-0.0033024779941041604
aF-0.002131704379201419
aF-0.008329979792356881
aF-0.00144955214984407
aF-0.0020102630646773893
aF0.0
aF-0.006305646000780801
aF-0.039482307665149485
aF0.0
aF0.0
aF-0.004397762929109261
aF0.0
aF-0.002327716331105664
aF0.0
aF-0.011867248829041036
aF-0.0011784901452547036
aF0.0
aF0.0
aF0.0
aF0.0018785183623297758
aF0.0
aF0.0
aF0.0
aF-0.00866222703264566
aF0.0
aF0.0
aF-0.0011426378361275012
aF-0.007100614878335092
aF0.0
aF0.0
aF-0.004717652927090921
aF0.0
aF-0.007814384592079407
aF-0.0019594891716133386
aF0.0
aF-0.01040147617933606
aF0.0
aF0.0
aF0.0
aF0.0
aF-0.001915156895851526
aF-0.010597330829919408
aF0.0
aF-0.003275198221873385
aF-0.007531899819819106
aF0.008107552945670402
aF0.0
aF0.0
aF0.004247736665634665
aF0.0
aF-0.00710049041877011
aF-0.006692974224202011
aF0.0
aF-0.00626623852948275
aF0.0
aF-0.003940124461717159
aF-0.001772712899493139
aF-0.0050369301317494284
aF-0.002924062018512863
aF0.006808033618695284
aF0.007203922899369803
aF-0.0020102630646773893
aF-0.0036515305788564593
aF-0.012537459647117645
aF0.0
aF-0.002137257584483172
aF0.0
aF0.0
aF0.0
aF-0.0245749908985258
aF-0.0044274267169210745
aF0.030605039253582426
aF0.0
aF-0.000612584905426759
aF0.0
aF0.0
aF-0.0021768996780544415
aF-0.001202884963589749
aF-0.003719589618497431
aF-0.00510071796362983
aF0.0
aF-0.00880439793396621
aF0.0
aF-0.002360200383052883
aF-0.002553747901092745
aF-0.002360200383052883
aF-0.002848347842931337
aF-0.0014091973510185704
aF0.001027276423884508
aF-0.0046689980276829485
aF0.0
aF0.0018530994376908562
aF0.0
aF-0.012798548797143193
aF0.0
aF0.0
aF0.0
aF0.0
aF0.005740600347405429
aF0.0
aF0.0
aF-0.0023615588935860187
aF0.0
aF-0.0029253151255190686
aF0.0
aF0.0026542177226998643
aF0.0008927985187892756
aF0.0
aF-0.004617337024197581
aF0.0018658343572622105
aF0.0
aF-0.0038341724897993533
aF-0.004757800637312709
aF0.0
aF0.0
aF-0.006028661609738551
aF0.0
aF-0.0012705552880942065
aF0.0
aF-0.0026668235007639234
aF-0.0030001466888013566
aF-0.002558435781885881
aF0.0
aF-0.0028544678266510305
aF0.0
aF0.009084982778787267
aF-0.00650370070736439
aF0.0
aF-0.00697499977630109
aF0.003486402842503721
aF0.0
aF0.0
aF0.0056296877110572335
aF-0.00640399991946496
aF-0.013404087627275714
aF-0.002448868740734566
aF0.0
aF-0.0018887459379372782
aF0.0
aF0.0
aF-0.011645153788929465
aF0.0
aF-0.001953419588823258
aF0.0
aF-0.0030635015699795112
aF0.0
aF-0.0035535541105682893
aF0.007729778851362218
aF0.0
aF0.0
aF-0.003934589997957155
aF-0.0032814213250958258
aF0.0
aF-0.004773419042154607
aF0.0
aF0.0028331945826579386
aF0.0
aF0.0
aF0.0
aF0.006067983239929893
aF0.01154115237632113
aF0.007094959907342016
aF0.0
aF0.012035495985144952
aF-0.006662083634180087
aF0.0
aF-0.002041911460425742
aF0.0
aF-0.0021624148117227017
aF-0.0024191309287069584
aF0.0
aF0.007637168648008341
aF-0.05144750345654706
aF0.0
aF-0.00543157427325271
aF-0.002155677232997941
aF0.007909513125625505
aF0.002462619254841993
aF-0.02633485210739664
aF-0.010822925665729038
aF0.0
aF-0.0029888516918092425
aF-0.006870829484082961
aF0.0
aF0.0
aF0.0
aF0.0
aF0.002282436737837505
aF0.0
aF-0.0023187837862292844
aF-0.0019252574394681247
aF0.013753724323611076
aF-0.00215618791384789
aF0.004995817093736452
aF0.012343606138129756
aF0.0025439200145367987
aF-0.004301960728047618
aF0.004249697597311126
aF0.0
aF0.0
aF-0.004779191905091278
aF-0.00710049041877011
aF-0.033533336823180264
aF-0.002041911460425742
aF0.0
aF-0.003196527447697863
aF-0.0017962772653194378
aF-0.008576799482110783
aF0.0
aF0.0075061713662029975
aF-0.0021967662315678727
aF-0.007875493464366985
aF0.0
aF0.0
aF0.007853066540763856
aF0.0
aF-0.002553747901092745
aF-0.004341046666169573
aF-0.001809751273118449
aF-0.00720770376977013
aF0.0032116270629678006
aF0.0
aF0.0
aF0.0
aF0.0
aF-0.002565559404450273
aF0.0
aF-0.00545602500715385
aF-0.0030593214603458004
aF-0.0023155553269981473
aF-0.005294082150916083
aF0.0
aF0.0
aF-0.004889881766416107
aF0.0
aF0.0015338811972590632
aF0.0
aF0.0
aF-0.0016872189042594677
aF-0.007984136040102802
aF7.53665012873571e-05
aF0.0
aF-0.0022852756722550023
aF0.0
aF0.0
aF0.0
aF0.0
aF0.0
aF0.0
aF-0.0028544678266510305
aF-0.0010329731625813307
aF0.0
aF0.008097946886839595
aF0.0
aF0.0
aF0.008013457930501594
aF0.0
aF-0.0060763153769749865
aF0.0
aF0.00773366754216629
aF-0.00810175442577479
aF-0.01233596790302867
aF-0.002622689840247766
aF0.0
aF-0.0015316021952099922
aF0.0
aF0.0
aF0.0
aF-0.007065542088973865
aF-0.0009817444883808545
aF0.0
aF-0.002327716331105664
aF0.0
aF0.008860573174638718
aF0.0
aF-0.002529288593299333
aF-0.0034767415574280627
aF0.0
aF0.00370787407813971
aF0.0016040297139791125
aF-0.005506141680215912
aF0.0
aF0.0
aF-0.002334897451684483
aF0.0
aF0.009403327395040125
aF0.0
aF-0.0034902294397289695
aF0.0
aF0.0015119312611435783
aF-0.00227658247791175
aF-0.002360200383052883
aF0.006790992922675599
aF0.0018658343572622105
aF0.0017240603241031275
aF0.0
aF0.0
aF0.0
aF0.006743444376951782
aF0.0
aF0.0
aF-0.0002717286450614857
aF0.0
aF0.00906915900997433
aF-0.003795061261525939
aF0.0
aF-0.001809751273118449
aF0.00012030129425941963
aF0.0
aF0.0
aF0.0
aF0.0016153925965892684
aF0.0
aF0.004406109025222013
aF-0.00036316800206912143
aF0.0
aF-0.021452406424371507
aF0.0
aF0.0
aF0.0
aF-0.009305364852168473
aF0.0030039368585768095
aF0.0
aF0.0
aF-0.005863443440149473
aF0.003220913192068506
aF0.006209092441983124
aF0.0
aF0.0
aF-0.0034299880107895933
aF-0.0037116248564323566
aF0.0059218356434023066
aF-0.007748910919533592
aF0.0
aF-0.0021615447314387087
aF0.0034453661212570192
aF-0.0032323813843488348
aF-0.002276568009802642
aF0.000476689774707987
aF0.004919929553245537
aF-0.0028799548172280805
aF0.0
aF-0.0029253151255190686
aF0.0075086925651860915
aF0.0
aF-0.007518152402477712
aF0.0
aF-0.004270788267003097
aF0.0
aF-0.0047232432107933405
aF0.0
aF0.0
aF-0.00575181464010368
aF-0.0028190407810264333
aF0.0
aF0.0
aF0.0
aF0.002652597509454489
aF0.0
aF0.0
aF-0.0023116317800395813
aF-0.004651457885619052
aF-0.0025083957387668256
aF-0.005786129285441579
aF0.0
aF0.01003042841644191
aF0.0
aF0.0
aF-0.01639241968015473
aF0.003077087352813607
aF0.0
aF0.0
aF0.0
aF0.0
aF-0.003934589997957155
aF-0.0040186833857844976
aF0.0
aF-0.0044755001495517515
aF-0.002357118511824734
aF-0.002106894032301027
aF-0.004122161296755357
aF-0.01313131249091479
aF0.0007875676504650359
aF0.0
aF0.0
aF-0.002547236443030704
aF-0.000592243622649204
aF-0.012070555481248968
aF-0.0020175062235233297
aF0.0
aF-0.0007256325003849212
aF0.0
aF0.004204569558273483
aF-0.07560740345962531
aF-0.06890892925460677
aF-0.0122751661750153
aF-0.019963983287103453
aF0.0
aF-0.0041287867627973944
aF-0.004205202851706602
aF0.005559857943058677
aF-0.01357520583362766
aF-0.0037403136498200644
aF0.0
aF-0.0006580465803776867
aF0.0
aF-0.003196527447697863
aF0.001022999602870525
aF0.011554852495410365
aF0.0
aF0.006585538414086573
aF0.0
aF-0.007187059364618754
aF0.0
aF0.0
aF0.0
aF0.007203922899369803
aF-0.0037638430382641477
aF-0.01187293569051493
aF0.0
aF-0.0011556497809615018
aF0.021209385945443242
aF-0.0923106473525088
aF0.0
aF0.0
aF0.0
aF-0.0025402071905210066
aF0.0
aF-0.0033343796589940526
aF0.0
aF0.0
aF-0.014319363057437084
aF0.0
aF0.0
aF-0.0025155271954070526
aF0.0
aF0.0
aF-0.004082971612702272
aF0.0
aF-0.0029333159789095165
aF0.0
aF0.0
aF0.0
aF0.0
aF0.007767143479289154
aF0.0
aF-0.004649703605138698
aF-0.0047923691265914295
aF0.0
aF-0.0023586725483738954
aF0.0
aF-0.004584183724422887
aF-0.005535456195047767
aF-0.0030971012668286977
aF-0.002288965354554756
aF0.0
aF-0.0028624215592844443
aF0.0
aF-0.002431050646165585
aF0.0
aF0.0
aF0.0
aF0.0
aF-0.0023187837862292844
aF0.0
aF-0.0035734936233756125
aF0.0038231038355884053
aF0.0
aF0.008022149867562098
aF-0.002310795504974473
aF0.0
aF0.006808033618695284
aF0.0
aF0.0047213443340735845
aF6.544493332955601e-05
aF0.008561720857435139
aF-0.008475700748620371
aF0.003985909364436812
aF-0.004656391851691949
aF0.009003576444741238
aF-0.07160227348736059
aF0.0
aF-0.004355585908941094
aF-0.0016722947370436036
aF0.0
aF0.0
aF0.0
aF-0.004690765971520968
aF0.010495834930930549
aF0.010949717571231657
aF0.0
aF0.0
aF-0.0031178887604676737
aF-0.002864376512816931
aF-0.004653181613757504
aF0.0
aF-0.0023465023414687976
aF0.0
aF0.0
aF0.0
aF0.007213540757571406
aF-0.007066971296220607
aF-0.006452288908957927
aF0.0
aF0.004363535155279806
aF-0.0029891874915763286
aF6.544493332955601e-05
aF0.0
aF0.0
aF0.005222937188108262
aF0.0
aF-0.00453535235586489
aF-0.002939637760595995
aF-0.0035890082724727703
aF0.0
aF0.0
aF0.0
aF0.0
aF0.006800286385913479
aF-0.0022700873864501094
aF0.0
aF-0.002580694794483228
aF-0.014012341834777817
aF0.0
aF-0.0005999120930081335
aF-0.005619476369480691
aF0.0
aF0.0
aF0.0045227675238638295
aF-0.019380312084918323
aF0.0
aF-0.005702221316336855
aF0.0
aF0.0
aF0.0012330977642236026
aF0.006808033618695284
aF-0.005016544248593582
aF-0.001771910143773871
aF0.0
aF-0.0024140842033548125
aF-0.002123553428184915
aF-0.004843147461591075
aF0.0
aF0.007909513125625505
aF0.0
aF0.0
aF-0.002766580058235788
aF0.007321073187573973
aF0.0
aF0.0
aF-0.008934373733379726
aF-0.01239536783258655
aF-0.0021768996780544415
aF0.0
aF0.0
aF-0.002426160919803657
aF-0.004890528105257938
aF-0.006922689981689697
aF-0.007108144497649417
aF0.0
aF0.008860573174638718
aF0.0
aF0.0
aF0.0
aF0.007348546118470951
aF-0.0028917268325634516
aF0.002385141300209454
aF-0.0048078239752638394
aF0.0
aF-0.004544809717485181
aF-0.014940715756975077
aF-0.0028917268325634516
aF-0.0016039385914079314
aF0.0
aF0.0
aF-0.000904097777640229
aF-0.00537123714376791
aF0.0018530994376908562
aF-0.05874284312907827
aF-0.0038827143211568856
aF-0.01456332413978843
aF-0.001953419588823258
aF-0.001584880453104089
aF-0.016569794365428908
aF0.0
aF0.0044922157385823315
aF-0.032978151369566625
aF-0.0039771902142980604
aF0.009249201690939674
aF0.017553077405058008
aF0.005567878510915539
aF0.0
aF-0.002907410428179641
aF0.0
aF-0.010690876990236124
aF0.004571706495241006
aF-0.00391118198653057
aF-0.009154031189591743
aF0.0
aF-0.008433002438150209
aF-0.004779191905091278
aF0.0
aF0.006743444376951782
aF-0.003137687373162413
aF-0.0031155624253040685
aF0.0
aF-0.005500786102959964
aF-0.0010123353373353928
aF0.0
aF-0.0024162169073483173
aF0.0
aF-0.004358303076742328
aF0.006059156011426498
aF0.010201556265347682
aF-0.006462745863289526
aF-0.00880803358778814
aF0.0022679442274000303
aF0.0
aF0.0
aF-0.0016246463539128873
aF0.0
aF0.0
aF-0.007894754330395347
aF0.0
aF0.00018599851379015597
aF0.005129070850445732
aF0.0
aF0.0
aF-0.0018475091738797704
aF0.0
aF-0.0015569284703587588
aF0.0
aF0.0
aF-0.007272495574534016
aF0.0
aF0.006743444376951782
aF0.005100400488121359
aF-0.02015976418428271
aF-0.004860589592169132
aF0.0
aF-0.0029333159789095165
aF0.0
aF-0.0023521355965309787
aF-0.0011441739799592434
aF0.0
aF0.0
aF0.005627411770498862
aF0.0059218356434023066
aF-0.0016501723849391393
aF-0.0033343796589940526
aF-0.0035956496678412686
aF0.01936518382690776
aF0.0
aF-0.05403054342371348
aF0.005205317238997628
aF-0.0023010507436813294
aF-0.0030770642768761943
aF-0.0081873585244315
aF-0.008912208564441275
aF0.0
aF0.0
aF0.0
aF-0.027177733622151548
aF-0.009930914231641523
aF0.0015613276729993934
aF-0.0025924912994990564
aF0.0
aF-0.002448868740734566
aF-0.006368868436609146
aF0.0
aF0.005210855236083101
aF0.0
aF-0.013638445850732223
aF0.0
aF-0.0018483945085266181
aF0.0
aF-0.004315010895679378
aF0.0
aF-0.002150481396619937
aF-0.002327716331105664
aF0.014696910062478868
aF0.0
aF-0.0028799548172280805
aF0.0
aF-0.006673393363148709
aF-0.006673393363148709
aF-0.0064288725189342606
aF-0.005304169168483686
aF0.0
aF0.0
aF0.0
aF0.0
aF0.0
aF-0.002327716331105664
aF-0.009258163631871812
aF0.006808033618695284
aF0.005711247686252433
aF0.0
aF-0.008482985722325254
aF-0.002105164592956515
aF0.0
aF-0.0023615588935860187
aF-0.003208714742743776
aF0.0
aF0.0
aF-0.000617084182248805
aF0.0
aF0.0
aF-0.0037638430382641477
aF0.005885597457060441
aF0.0
aF0.0
aF-0.000720514189964659
aF0.0
aF-0.014508766329471009
aF-0.005812863406065492
aF-0.005713897695034285
aF0.0
aF0.0
aF0.0
aF-0.0019550773850102172
aF0.0
aF-0.0038800524409659046
aF0.0
aF0.0
aF0.008353667008012704
aF0.0
aF0.0
aF0.0
aF0.01166418620255749
aF0.0
aF-0.004204225963087399
aF0.0
aF0.0
aF0.0
aF0.0
aF-0.0024523021511734674
aF-0.00191566892120387
aF0.00555800814776659
aF0.0
aF0.003342318426360808
aF-0.004100539971471317
aF0.0
aF0.0
aF-0.009037010017584729
aF0.0
aF-0.00715565874245302
aF0.0
aF0.008353667008012704
aF0.0
aF-0.0057895257520694555
aF-0.006823115322653008
aF0.0
aF-0.0017962772653194378
aF-0.0015316021952099922
aF-0.002292003265187443
aF-0.004768760440005125
aF0.0
aF0.0
aF0.0
aF-0.006191714822154628
aF0.005783936587919936
aF0.008353667008012704
aF0.0
aF0.0
aF-0.0023252961711623926
aF-0.0035214790353836145
aF0.0
aF-0.005794963325326348
aF0.0
aF0.0
aF0.0
aF0.0
aF0.0032849615078953077
aF0.0
aF0.0
aF0.0029681759949165398
aF-0.002924062018512863
aF0.0008333290255987807
aF0.0
aF-0.003747240698124927
aF0.0
aF0.0
aF0.0
aF0.0
aF-0.00833149968311659
aF-0.0034800896756577264
aF-0.0040353673232881564
aF-0.007921383303474715
aF-0.011426783963302507
aF0.0
aF-0.004651457885619052
aF0.008195217380272176
aF0.0
aF0.008353667008012704
aF0.0
aF-0.002369489694792627
aF-0.0041125920179154295
aF0.0
aF-0.005200090601267056
aF-0.002299428236497014
aF-0.011067062311392605
aF-0.004202628032618726
aF0.0
aF0.0
aF0.0
aF0.0
aF-0.004462283934781944
aF-0.004778870952531994
aF0.0
aF-0.003208714742743776
aF-0.0041287867627973944
aF0.0
aF0.00277091123578359
aF-0.0027583840914236074
aF0.007619544894619851
aF0.0
aF0.0
aF0.0
aF0.0
aF0.0
aF0.0
aF-0.0021733233513113012
aF0.0
aF-0.0018752681901278692
aF-0.0034112063184008317
aF0.0
aF-0.0071653844865905425
aF0.0062368488898075156
aF-0.041473299198725236
aF0.0
aF0.0
aF-0.005794963325326348
aF0.0
aF-0.003918939976888887
aF-0.005517407355421363
aF-0.0037638430382641477
aF0.0
aF-0.003208714742743776
aF0.0
aF-0.0037611613070415058
aF-0.005004700300408498
aF-0.01165722086586579
aF0.0
aF0.0
aF0.0
aF0.0
aF0.0
aF-0.000914105664554778
aF-0.00356004074656794
aF-0.00237464364639909
aF0.0
aF0.0
aF0.0
aF-0.003983811079738946
aF0.0
aF0.006743444376951782
aF0.0
aF-0.005599647377858568
aF-0.0075479073003530016
aF0.0
aF-0.00453394882985101
aF-0.006749924507904906
aF-0.00231004350653958
aF0.0
aF-0.0032069603917607953
aF-0.002298302208690626
aF-0.00932615521014074
aF0.0064673265364878175
aF-0.016871124241188737
aF0.0037746447412055897
aF-0.03553207171334952
aF-0.0020030762351280953
aF0.002318476757251617
aF-0.005233433581032281
aF-0.003935511400119723
aF0.002234861185489103
aF0.00667878731180025
aF0.0
aF-0.04533940358377563
aF0.0
aF0.0
aF-0.006040556246022398
aF0.007842444556773914
aF0.007125829242189142
aF-0.039395611720601555
aF-0.010992208325985492
aF-0.0055323095927738535
aF-0.022282946880714423
aF0.005642038504556409
aF-0.04524466103972762
aF0.0
aF0.0026654469503510406
aF0.00568350642411173
aF0.0
aF-0.003942007026938111
aF-0.001468496695079162
aF0.009427204844956115
aF-0.0035481616455639554
aF-0.0026449575533383433
aF-0.0032170005413064444
aF-0.006053411260192082
aF-0.002818295047314162
aF0.008158504785354388
aF-0.014857199486118168
aF0.00198413882720745
aF0.0
aF0.002011312981019032
aF0.0
aF-0.0026449575533383433
aF-0.002300475845771752
aF-0.003455872780525616
aF-0.0035516152980854575
aF-0.00869169341692151
aF-0.006889475354885119
aF-0.0032887937650072935
aF0.0027960279422099416
aF0.0
aF0.0020939373238826895
aF0.0028268122842137304
aF0.0
aF-0.021377203913522547
aF0.0
aF-0.020021108723730537
aF-0.02255743876511167
aF0.0
aF-0.005271921615800482
aF-0.002589114977539028
aF-0.0034887274816635394
aF-0.007654926891869209
aF-0.0005954899903045752
aF0.007735215431054851
aF0.0
aF0.0
aF-0.005606566848635244
aF-0.006050855309424886
aF0.00043893963190609766
aF0.0023502593845225145
aF0.0
aF-0.0029253151255190686
aF0.00046934189689593737
aF-0.011987996850445022
aF-0.004327098223246401
aF0.0
aF0.005529442075637681
aF-0.001809751273118449
aF0.009047028418282286
aF0.00020792398087612278
aF-0.02018313756349319
aF-0.009144405046273741
aF0.010112152353869688
aF0.0
aF-0.006495449106656609
aF-0.0012032790795400367
aF-0.0006073663225466227
aF-0.006345885605265001
aF0.0
aF-0.003135543696150806
aF0.005273011386921378
aF0.01146695299187476
aF0.0
aF0.007393609233914778
aF-9.145826945146677e-05
aF-0.0010883703606474697
aF0.0
aF0.0062165949771524395
aF-0.00889457970504229
aF0.0
aF-0.002516087873767063
aF0.0
aF0.0018219035479205125
aF-0.0026584412843245614
aF-0.0049060675661627695
aF0.0
aF0.006634205845869906
aF-0.0013422485246865731
aF0.00577883419552023
aF0.0
aF0.0
aF0.0
aF0.005627411770498862
aF0.0023632191936609624
aF0.0026239245465253785
aF-0.0023401143550754486
aF0.002712166249305252
aF0.006090541310873998
aF-0.035257089236955794
aF0.0011317464418090528
aF0.0024184675346211326
aF0.007924963205426414
aF-0.00259556843057089
aF-4.7644564107647645e-05
aF-0.0023813482720190316
aF-0.0055802561617296935
aF-0.0006813895201411247
aF-0.0026300566540094082
aF-0.0024162169073483173
aF0.0
aF0.0
aF0.0
aF0.003894924101373788
aF-0.0057882199818644715
aF-0.0025610069050294483
aF0.0
aF0.0
aF-0.007029926095088188
aF0.00443820131391595
aF0.0020709489632520636
aF-0.0031441817554391663
aF-0.003272915285169659
aF0.0
aF0.0
aF-0.004797243030025198
aF0.00260804559280087
aF0.00625142852184101
aF0.007568343258571426
aF-0.000277439692745691
aF0.0020051044936892047
aF-0.005421029365928929
aF0.0
aF0.003922443085012916
aF0.0
aF0.002584424422664833
aF0.0
aF-0.00015327717708963295
aF0.0037018570346218694
aF0.0
aF0.0
aF-0.00045314356653668815
aF0.0
aF-0.0028641327320150186
aF-0.007475715831699047
aF-0.018504807240493727
aF0.0
aF-0.0064538302529916726
aF0.0026285164552058635
aF0.004401597992842048
aF0.0044444056941346285
aF-0.0008922924180487045
aF-0.002448868740734566
aF-0.009431803761306836
aF-0.0008787465347975107
aF0.0011312233522143458
aF-0.004277666632240082
aF-0.024587089547060587
aF-0.0025331380502871797
aF0.0
aF-0.002105164592956515
aF-0.009199793010034929
aF0.0
aF0.007664512747247914
aF-0.004337736459861363
aF-0.0016872189042594677
aF-0.0010725306326020989
aF-0.002175809394155358
aF0.01005379755559379
aF-0.0005192614427381532
aF0.0075086925651860915
aF0.007184433554131045
aF0.0
aF-0.01975504141417097
aF-0.0019524700305739362
aF-0.012322632847830733
aF0.0012362388507139153
aF-0.0020677436770669784
aF0.00768726836793294
aF-0.0016385975124398803
aF0.0015809220098589247
aF0.0013419115531664743
aF-0.004615514592230342
aF-0.0004420852720667275
aF0.0
aF-0.0023886255738077636
aF-0.0016872189042594677
aF0.0006038175297798916
aF0.006044775664935698
aF0.0
aF0.018770168763279933
aF-0.004478759270272412
aF-0.0072116324404785884
aF-0.0016224131570827139
aF-0.0018801372466884499
aF-0.0016872189042594677
aF-0.004012930021528608
aF0.0
aF-0.004044868583774972
aF-0.005831582824335413
aF-0.0039906481009526085
aF-0.005170379120079306
aF0.009593425137311803
aF-0.007497427483902085
aF0.0075086925651860915
aF0.0
aF-0.007627271918371208
aF-0.004233818827697845
aF0.0034255268560026723
aF-0.0014662335864130888
aF0.019458827867874316
aF0.0016442794676837047
aF0.007254337434709861
aF-0.004615514592230342
aF-0.0028378682434565
aF-0.0031800254342330128
aF-0.027674535879356338
aF0.003564586116872419
aF0.007305797208232794
aF-0.013118369693760689
aF0.0
aF-0.004615514592230342
aF-0.0016950182306732751
aF0.007621461336683895
aF0.006211591670679768
aF0.0038414991055295902
aF-0.002105164592956515
aF0.0
aF0.012254803902680394
aF0.0
aF-0.006362306694443032
aF0.005276655295045228
aF0.0
aF0.0
aF-0.0015569284703587588
aF-0.0017818856200265871
aF0.0
aF0.0
aF-0.001830286025665519
aF-0.003339913043420395
aF0.0024429116539488515
aF-0.00490751699409979
aF0.0
aF-0.0005043765558808324
aF0.0
aF-0.0027437696453291205
aF0.0
aF-0.0019524700305739362
aF-0.007603795131641233
aF0.004261842817173276
aF-0.007030045642524187
aF-0.007247362050228353
aF-0.0029515461135423146
aF0.008097946886839595
aF-0.004715925281222362
aF-0.004041400391029283
aF-0.0022370813736689696
aF-0.0033539831779659077
aF0.0
aF0.003656026183590052
aF0.004009297119386514
aF-0.0026494807348649407
aF0.0019197719536431543
aF0.0
aF0.006743444376951782
aF0.009627504586029541
aF-0.00871831182996632
aF0.0
aF0.0
aF-0.002805262823812564
aF-0.006725300113556964
aF-0.009745641580706229
aF-0.004793820097914885
aF-0.0006635338596198579
aF0.0018479641512502898
aF0.0
aF0.0
aF-0.002175809394155358
aF-0.0002112263444771232
aF0.0
aF-0.0010522889886146053
aF-0.004615526951324637
aF0.0
aF-0.0023161387002740247
aF0.0
aF-0.0010329731625813307
aF-0.0019274073471890292
aF0.0017606165966580346
aF-0.004022686566561847
aF0.0
aF-0.029889266477905106
aF-0.0007064425493404328
aF-0.0024115855355272557
aF-0.0048460733540839325
aF0.003436700765719318
aF-0.0007049420008581492
aF0.005443532058341957
aF-0.0023749139445669964
aF0.0025622399377677007
aF-0.002411937563123265
aF0.011480402979317763
aF0.0
aF-0.0025372380838729115
aF-0.0052344646318769495
aF0.0016092404865131074
aF-0.0021388557594190756
aF-0.005062234370512226
aF-0.002656927586137004
aF0.004891009799035569
aF0.006281680073724534
aF-0.0017798678935139927
aF-0.0031332513755602896
aF0.005627411770498862
aF-0.0030156192130799692
aF0.0
aF-0.002041911460425742
aF0.0
aF0.004622264102435447
aF0.004742520927644537
aF-0.004328882197791499
aF-0.012479526527915018
aF0.0050019453570275575
aF0.0027241748913519664
aF0.0
aF0.0
aF0.0
aF0.007393609233914778
aF0.0021571456462619832
aF-0.0006806615340717373
aF0.0011959260898520624
aF0.00825932234441669
aF0.0
aF-0.00917471291105642
aF-0.004607097700967729
aF0.001313271025008134
aF0.010626660409150326
aF0.0
aF-0.0014092704247159148
aF0.0
aF0.0
aF0.0
aF-0.007502504418606764
aF0.011654964886367098
aF0.006622535239084982
aF0.0008285469081351634
aF-0.0011242451394463306
aF0.0
aF0.006253727666930482
aF0.0
aF-0.03170717568038755
aF0.0029495223039775593
aF-0.009775834744661803
aF0.00768726836793294
aF-0.0032409761774404456
aF0.0014793786556111645
aF0.0
aF0.0
aF-0.0005717997265817501
aF0.0
aF-0.020115720236481588
aF0.0
aF0.0003890174587577585
aF0.005342822367675941
aF0.0
aF-0.0018801372466884499
aF0.010223615642081827
aF-0.000446881455898959
aF-0.004478159171686143
aF-0.005913781965791631
aF-0.00556418011365816
aF-0.0023077422260312187
aF0.0
aF-0.008050529993088201
aF0.0023860588820753858
aF-0.010696894993452059
aF-0.0055187915837153125
aF-0.0024127768984633993
aF-0.010525868198151158
aF0.0
aF-0.00547502598048103
aF-0.006375831578440035
aF-0.013875186188416032
aF-0.004245175734712769
aF-0.04052123729378203
aF0.0010092572983788463
aF-0.005654217737989597
aF0.0
aF0.0
aF-0.002261749620254076
aF0.0
aF-0.013052796895828372
aF-0.0055959874633458116
aF0.006401287682850187
aF-0.004018042912180022
aF0.0019179286283493005
aF0.0012657949020093635
aF0.009614475168663348
aF0.0
aF0.0
aF-0.004815447743353993
aF-0.0051144732986977935
aF-0.000530385642153638
aF0.005605854252791337
aF-0.0023996720830350106
aF-0.0020492038363177038
aF-0.0029253151255190686
aF-0.029025211965644875
aF-0.006439616112136571
aF-0.0028120258465962147
aF-0.002598823740551309
aF0.0
aF0.0
aF0.008097946886839595
aF-0.00012392091994739224
aF-0.0010884498390272208
aF-0.00029945359680823053
aF-0.0018652083344653041
aF0.011909890050765797
aF-0.00016171574483177042
aF0.0
aF-0.004314514863160368
aF-0.002746998843915404
aF0.014075738263992384
aF-0.0157509504477638
aF-0.0036189158898822273
aF-0.03882423810519328
aF0.0
aF0.005760966155547418
aF-0.00587596264545234
aF-0.001809751273118449
aF-0.0025749319739353897
aF-0.004534900183056523
aF0.0
aF-0.005033812293850172
aF0.002996457367173644
aF0.005692731017657927
aF0.0
aF0.0
aF-0.006172907871158592
aF0.0012567652292908413
aF-0.0025727244767187914
aF0.014194145958003102
aF0.008561720857435139
aF-0.04636578006506447
aF-0.004341046666169573
aF0.0115869027572929
aF-0.013332469288935743
aF-0.0021608783755481327
aF0.002030074788262827
aF-0.00018505666579660466
aF0.0013236712566594604
aF-0.0015121408978306659
aF-0.004649703605138698
aF-0.002105419016834203
aF0.0
aF0.0
aF0.0
aF0.0
aF0.0003559518033242261
aF-0.007536874277146099
aF-0.03607252149521023
aF0.0008720319845983326
aF-0.007964700217303477
aF0.0
aF-0.00790927722510182
aF-0.014093918747049005
aF-0.0026668235007639234
aF0.005095633490640918
aF-0.0014705464294589396
aF0.015258059244096456
aF-0.0005369973812174328
aF0.0
aF-0.009813029678993277
aF0.0
aF0.0
aF-0.002051646484592484
aF0.0017199493398964412
aF0.0
aF-0.0022156838915448063
aF-0.006415577810375037
aF-0.002175809394155358
aF-0.004889717877394957
aF0.0
aF0.0
aF-0.002537502256443414
aF-0.0020175062235233297
aF0.0
aF-0.0045784145407352286
aF0.0
aF0.0
aF-0.010948450951081056
aF-0.00197095472472119
aF0.007353381005592751
aF-0.0016872189042594677
aF-0.0005425636120468093
aF-0.0016289626813363305
aF0.0005260370416877655
aF-0.000538005415558744
aF-0.0025331380502871797
aF-0.001533394128900967
aF-0.07042622674204924
aF0.0005908044796476136
aF-0.0026791681069108465
aF-0.0031584604857525537
aF-0.0004409931714909896
aF0.0
aF0.0037291840055855155
aF0.0
aF-0.0016872189042594677
aF0.004504029316851872
aF-0.017703331513003403
aF-0.008663638115914276
aF0.01998071839602028
aF0.007452990252767439
aF0.0
aF-0.0007244748417584302
aF-0.003870643536336188
aF0.010243168197398504
aF0.0038945710875408638
aF-0.00042509660105786887
aF0.0
aF-0.0012275756291178256
aF0.007243824934031197
aF0.0014521071306870781
aF0.0
aF-0.0035059624711037546
aF0.0
aF-0.010585594501209453
aF0.0010581281251050379
aF-0.00380216004234952
aF-0.0024523021511734674
aF0.0
aF0.009058770618810066
aF-0.018235624126581786
aF0.0
aF0.0
aF0.010723219010874935
aF0.008110461552474156
aF0.0
aF-0.004297684513893637
aF-0.0009575452069475142
aF-0.0034635744091779494
aF-0.025257613532282695
aF-0.001787672896659113
aF0.0
aF0.0054319492261542205
aF0.014487984945137582
aF-0.004434444005063455
aF0.008860573174638718
aF-0.004241878640385413
aF-0.00198331702181843
aF-0.0010329731625813307
aF0.007882553200540742
aF0.010924554722509224
aF0.001432450798343378
aF-0.0021758965243608274
aF-0.002430237551792406
aF-0.0022852459087133415
aF-0.011110916861405353
aF-0.00020677998697843283
aF-0.002374516227913629
aF0.0
aF0.0
aF0.0038304445391113017
aF0.009003576444741238
aF0.0
aF0.0
aF-0.004875475993265963
aF0.0
aF-0.003020485872227864
aF-0.0008724433700710488
aF0.008022149867562098
aF-0.0023065497370575124
aF0.0
aF-0.016261503929835604
aF0.0
aF0.007727051677916521
aF-0.0025331380502871797
aF0.007948382430508674
aF-0.00864786777158978
aF-0.002175809394155358
aF-0.0007999311877487496
aF0.0
aF-0.002073257811950677
aF0.0
aF0.0
aF0.0
aF0.0
aF0.0
aF-0.0021753755226378005
aF0.0
aF0.0
aF-0.0017662666563809718
aF-0.00307697662234846
aF-0.007379562635437971
aF-0.0019438364337153488
aF0.010064924734505426
aF0.006743444376951782
aF-0.0013787178652558815
aF-0.0020972587457873735
aF-0.012538390526310873
aF-0.03334368617240904
aF-0.0006313945953500354
aF-0.008074309801075758
aF-0.0013247403674324703
aF-0.004995800999676562
aF-0.0030597156573248427
aF-0.006187484796389579
aF-0.003506567998892771
aF-0.00226512483538534
aF0.0011239096439734227
aF0.0011127469756550545
aF0.0024720185309102067
aF0.0
aF0.0
aF0.0
aF0.003814285390057251
aF0.012063405230371397
aF0.0016093570037972525
aF-0.00013341487937814148
aF-0.001704178077477722
aF-0.002322853658145549
aF0.0006685099191874409
aF0.0
aF-0.006764356849177161
aF0.0
aF0.0025887759669896786
aF-0.011566087791914377
aF-0.03283659839086244
aF0.0
aF0.0
aF-0.0011248532384823702
aF-0.00016078976489924905
aF0.0032718235315461787
aF0.0
aF0.003619336978394005
aF-0.0026494807348649407
aF0.014967336356051407
aF-0.008845514431842727
aF-0.011479676923269365
aF-0.007359419067381293
aF0.0
aF0.0021678167595643285
aF0.006387778853818578
aF0.001452628019309305
aF-0.0005389106714298586
aF0.0027799289715293384
aF0.0
aF0.007888708444379016
aF0.0
aF0.0
aF-0.003919695460712059
aF-0.0006447049392385032
aF-0.012816760805123369
aF-0.0034941586138316568
aF-0.0028346872821249608
aF0.007712590824776033
aF0.008860573174638718
aF-0.0023812441624923024
aF-0.011886886232225516
aF0.015258059244096456
aF-0.001510242936113932
aF0.007674616556959782
aF-0.0008837343035887808
aF-0.006327014127081448
aF0.007203922899369803
aF0.009972552942968775
aF-0.0010725306326020989
aF0.00025355654300369826
aF-0.0018752681901278692
aF0.006100692135432291
aF-0.029133592510762495
aF0.0
aF0.005621454760157896
aF0.006557873631764488
aF0.005657242502841728
aF-0.002261749620254076
aF0.005094098179704701
aF0.001447161758960727
aF0.0
aF-0.02251755459422699
aF0.0
aF-0.008709706282209193
aF-0.0041845402749492175
aF0.0
aF0.0
aF-0.020689910933333618
aF0.0
aF-0.001115273401395912
aF-0.004366959577621921
aF0.00967987022451954
aF-0.0026708020079677236
aF-0.0026351653803573533
aF-0.033476325131317854
aF0.0
aF0.0
aF0.0
aF0.0
aF-0.014936549294052411
aF0.008342995471055895
aF-0.04436925048365958
aF0.0
aF-0.033692025299770056
aF0.0
aF0.0
aF-0.008590427873353138
aF-0.02011200066811058
aF-0.0013329809540866926
aF0.0
aF0.001006417815875953
aF-0.005500586707635734
aF0.002587663943758903
aF0.007893211138855027
aF-0.0045100412737166876
aF0.012402462719124482
aF-0.0015783019907287964
aF0.0
aF0.0
aF0.0
aF0.003532486862129132
aF-0.010436110388417982
aF0.00976611145740116
aF-0.0027587683568517096
aF-0.0005093367000576509
aF-0.022148650146024698
aF-0.0038626667720060453
aF0.0026608340549716383
aF0.008860573174638718
aF-0.003532177561027841
aF-0.003691852333491745
aF-0.008628655685708536
aF-0.023841581563981806
aF-0.002242502215500545
aF-0.009651067032490962
aF-0.013312806664579997
aF-0.01562987926743766
aF-0.005385106971992345
aF0.0007817848705551056
aF-0.0039842872702306135
aF-0.0020948890711673905
aF-0.014275260105118969
aF0.004149258327686277
aF-0.0029528386647228646
aF-0.0017818856200265871
aF-0.0016872189042594677
aF0.0
aF-0.012623827733797645
aF-0.00013361456990546098
aF-0.0024794921736375074
aF0.003267920754549719
aF-0.0021768996780544415
aF0.00826770250065057
aF-0.005553414433568741
aF0.0
aF-0.010518871719772897
aF-0.0011330912181335595
aF-0.0009116253985696886
aF-0.0012718041526088278
aF-0.001802752379200139
aF-0.0021768996780544415
aF-0.011121020139584185
aF-0.00746734671747678
aF-0.006143466695247074
aF0.004717289575501682
aF-0.005842271075158324
aF-0.007755016111382791
aF0.006842050600143505
aF-0.009174309988537998
aF-0.011094613418843555
aF-0.002242502215500545
aF0.01682113163060698
aF0.010669270983216284
aF0.0020178603842488547
aF-0.002355518110183517
aF-0.0018671329391579182
aF-0.004773116795444187
aF-0.013487271951674809
aF-0.001780683394018703
aF-0.004111695564079692
aF-0.010509628269474056
aF0.0036992596833803314
aF-0.0009397844655948636
aF-0.008994449342422843
aF-0.0005512056818575235
aF-0.01327139281956319
aF-0.0013213309397237633
aF-0.002324785569325892
aF0.0002480793037104879
aF0.0
aF-0.014467508274828879
aF0.007812907315034891
aF-0.002639431633327419
aF-0.0031089994398817316
aF-0.0007960573785950765
aF-0.003509027040131134
aF-0.00420547943555033
aF0.004717289575501682
aF-0.0011006512793788235
aF-0.0021768996780544415
aF0.0
aF-0.010054936531951903
aF-0.012709556843457604
aF-0.022080298712207656
aF-0.002926187876588626
aF-0.010175356382108284
aF0.0038982066497399923
aF-0.017467706170107428
aF-0.010017803861780108
aF-0.0005502760955456698
aF0.0
aF-0.008227735618439492
aF-0.005811825013797239
aF-0.020116898225317696
aF0.0
aF-0.00831217417574956
aF-0.006493312765271317
aF0.016980130254035622
aF0.001485297168658885
aF-0.010852762854330768
aF-0.012949908328983167
aF-0.014279091143361714
aF-0.0021837415497282728
aF-0.008435948431929297
aF-0.01007873476936998
aF-8.865031356195745e-05
aF0.007171791812580165
aF0.0007003204644726439
aF0.002072635044005573
aF-0.0011998667457599368
aF-0.0037593655836236006
aF-0.007321847403795249
aF-0.003434221956634933
aF0.006803427107577461
aF-0.01117855373807915
aF-0.015291785018873835
aF-0.0037436719889301397
aF-0.019491046341288513
aF0.0
aF-0.0014176998246234222
aF0.000712007480942547
aF-0.004082881692376543
aF-0.013312806664579997
aF-0.008052204656324223
aF0.0028698535885297
aF0.005183810544895344
aF-0.021204161311566473
aF-0.001496516582303071
aF-0.011104921002733512
aF-0.0013776133875436133
aF0.0015954119743352463
aF-0.0048081840993439845
aF-0.0024587648460037883
aF-0.008771973697528768
aF-0.0017404839607320034
aF-0.02267787161229908
aF0.005414175613893237
aF-0.004452718096882538
aF-0.0023749139445669964
aF0.0
aF-0.00420547943555033
aF-0.010418702640758797
aF-0.001254358815678416
aF0.0011998152547067942
aF-0.009435076984352073
aF-0.004300202814718977
aF0.0075145658514454245
aF-0.006635138577924676
aF-0.021797333852332026
aF-0.003566092921008851
aF-0.0028322137590247307
aF0.0075086925651860915
aF0.0
aF-0.021924002943426196
aF0.0
aF-0.015172911657297646
aF-0.002471499919438396
aF-0.01353823276345424
aF0.0
aF-0.007314225761254757
aF-0.009857114440713499
aF0.003677090068535134
aF0.0
aF0.0
aF0.0
aF-0.0015892885729491867
aF0.008349861474577976
aF-0.007299637582059918
aF0.0
aF0.002331444450503588
aF-0.010766055043056314
aF-0.005117218208228592
aF0.0
aF0.0065647909433905575
aF-0.00761476897453565
aF-0.000574240021740862
aF-0.017545287395205028
aF0.003371722188475891
aF-0.001822228863622583
aF0.0
aF-0.010671972819087978
aF-0.023186717661748422
aF-0.001472119023624788
aF0.004581658811862139
aF0.0023581795318823825
aF-0.002278484478025926
aF-0.00218422278981075
aF-0.00178233086870487
aF0.0
aF-0.009587915462522422
aF-0.004167229038243631
aF-0.0009278358232519777
aF-0.0161279426335278
aF0.007941275948906193
aF0.0
aF-0.0044274267169210745
aF-0.0017954197295160202
aF-0.0020045179774261794
aF0.0
aF-0.009708926198733574
aF0.0006949191900179868
aF0.0032631904891314628
aF-0.0039842872702306135
aF-0.0008335949147485132
aF-0.012487129005572306
aF0.012312795388545907
aF0.000228630098712542
aF-0.0029688303647560452
aF0.014432651978340275
aF-0.00046509866836429875
aF-0.008258313789353803
aF-0.0032748966790331225
aF-0.002242502215500545
aF-4.432515678097872e-05
aF-0.002838837851994378
aF-0.006029599772423508
aF0.0013164677201459433
aF-0.011390836305577516
aF0.00180985245714025
aF0.008537571209232698
aF-0.0018907192688862955
aF0.0
aF-0.00994768451719802
aF0.0028763280860437017
aF-0.002356858752980609
aF0.005596847810894217
aF-0.0006851427244978491
aF0.0
aF-0.003879956190208566
aF-0.00039319260797750254
aF-0.008994449342422843
aF-0.019731449331437095
aF0.0
aF0.0063862410989442816
aF-0.003421948976241008
aF-0.002313578634716222
aF-0.00021254309100139963
aF-0.008242845230400916
aF-0.002453983407269582
aF-0.017696741280748735
aF-0.007383473308682325
aF0.0018784897528420104
aF-0.0017404839607320034
aF0.0009725712983968997
aF-0.0009569549916649688
aF-0.002216554331257921
aF0.0075086925651860915
aF-0.010865795501862011
aF0.0
aF-0.012622005184863448
aF-0.01067867160930408
aF0.010210940723678
aF-0.007151247885916062
aF0.005476572554375621
aF-0.003431782217335089
aF-0.004183722091617086
aF-0.0017404839607320034
aF0.0001976929973381488
aF-0.004146374890611103
aF0.0
aF0.0
aF0.005908172179520576
aF-0.0009597343161668929
aF-0.011073839043573968
aF-0.013058689257581402
aF0.0
aF0.006882984119656606
aF3.789887297568932e-05
aF-0.00032724783554545544
aF-0.0027487095965260154
aF0.0002945167910751975
aF-0.0015201897069713494
aF0.0
aF-0.014333717807624092
aF0.007745596874593893
aF0.010637094529618798
aF-0.0026676363018682666
aF-0.011073839043573968
aF-0.0040824885780995565
aF0.005689699838023572
aF0.0016951108581646985
aF-0.006430073808615711
aF-0.017293448299233925
aF0.0022814443303725406
aF-0.021924002943426196
aF-0.0020857889940921383
aF0.0
aF-0.020197372693709924
aF-0.0006559710950005632
aF0.008744775759679668
aF-0.0017160645282922658
aF-0.005295488052911114
aF-0.02421004348585044
aF0.00730170685928186
aF0.0065311465313182045
aF-0.0011366352484802297
aF-0.002214027384564815
aF-0.0025910105234476467
aF-0.0031285418902500307
aF0.0
aF0.0022466963840004593
aF-0.006603841545114727
aF-0.005540276516793737
aF-0.01102526980465795
aF0.0
aF-0.013299107179818555
aF0.0057692213494503555
aF-0.0042384274101587545
aF0.004944499300056582
aF0.003361675105056968
aF0.0
aF0.0021317181209785357
aF-0.003566092921008851
aF0.0
aF-0.002638955803667961
aF-0.000522416935440669
aF-0.01965625667754676
aF-0.005117218208228592
aF-0.005292073320866653
aF-0.0066100889718647485
aF0.015797917750793485
aF-0.002470194282238562
aF-0.011073839043573968
aF-0.0037394269221712865
aF0.0051621902237172935
aF-0.001337113636948637
aF-0.0087529744284941
aF-0.009819855952051404
aF-0.0009278358232519777
aF0.0
aF-0.0017404839607320034
aF-0.016038076057032297
aF-0.0010049398687326312
aF0.0
aF-0.002124472498356323
aF-0.0037394269221712865
aF-0.0019953498321043494
aF0.011117081496036185
aF-0.0006117993419740084
aF0.0
aF0.0
aF-0.01050774445911272
aF-0.004449283058727648
aF0.005562993534685933
aF0.0
aF-0.0020055311612714962
aF-0.001484531100750582
aF-0.003482521120491505
aF0.0
aF0.0
aF0.013456941130160162
aF0.0
aF-0.0007630915085120934
aF-0.009692408129679597
aF0.0
aF0.005365219487427084
aF0.006443864794844946
aF0.0
aF0.002620459708668332
aF-0.0004704864978955399
aF-0.02074701337298376
aF-0.0065381690247393025
aF0.0
aF-0.007576326375451938
aF-0.0021952019516871873
aF0.0
aF0.0
aF0.0
aF0.0
aF0.0
aF0.0
aF0.0
aF0.0
aF0.0
aF0.0
aF0.0
aF0.0
aF0.0
aF0.0
aF0.0
aF0.0
aF0.0
aF0.0
aF0.0
aF0.0
aF0.0
aF0.0
aF0.0
aF0.0
aF0.0
aF0.0
aF0.0
aF0.0
aF0.0
aF0.0
aF0.0
aF0.0
aF0.0
aF0.0
aF0.0
aF0.0
aF0.0
aF0.0
aF0.0
aF0.0
aF0.0
aF0.0
aF0.0
aF0.0
aF0.0
aF0.0
aF0.0
aF0.0
aF0.0
aF0.0
aF0.0
aF0.0
aF0.0
aF0.0
aF0.0
aF0.0
aF0.0
aF0.0
aF0.0
aF0.0
aF0.0
aF0.0
aF0.0
aF0.0
aF0.0
aF0.0
aF0.0
aF0.0
aF0.0
aF0.0
aF0.0
aF0.0
aF0.0
aF0.0
aF0.0
aF0.0
aF0.0
aF0.0
aF0.0
aF0.0
aF0.0
aF0.0
aF0.0
aF0.0
aF0.0
aF0.0
aF0.0
aF0.0
aF0.0
aF0.0
aF0.0
aF0.0
aF0.0
aF0.0
aF0.0
aF0.0
aF0.0
aF0.0
aF0.0
aF0.0
aF0.0
aF0.0
aF0.0
aF0.0
aF0.0
aF0.0
aF0.0
aF0.0
aF0.0
aF0.0
aF0.0
aF0.0
aF0.0
aF0.0
aF0.0
aF0.0
aF0.0
aF0.0
aF0.0
aF0.0
aF0.0
aF0.0
aF0.0
aF0.0
aF0.0
aF0.0
aF0.0
aF0.0
aF0.0
aF0.0
aF0.0
aF0.0
aF0.0
aF0.0
aF0.0
aF0.0
aF0.0
aF0.0
aF0.0
aF0.0
aF0.0
aF0.0
aF0.0
aF0.0
aF0.0
aF0.0
aF0.0
aF0.0
aF0.0
aF0.0
aF0.0
aF0.0
aF0.0
aF0.0
aF0.0
aF0.0
aF0.0
aF0.0
aF0.0
aF0.0
aF0.0
aF0.0
aF0.0
aF0.0
aF0.0
aF0.0
aF0.0
aF0.0
aF0.0
aF0.0
aF0.0
aF0.0
aF0.0
aF0.0
aF0.0
aF0.0
aF0.0
aF0.0
aF0.0
aF0.0
aF0.0
aF0.0
aF0.0
aF0.0
aF0.0
aF0.0
aF0.0
aF0.0
aF0.0
aF0.0
aF0.0
aF0.0
aF0.0
aF0.0
aF0.0
aF0.0
aF0.0
aF0.0
aF0.0
aF0.0
aF0.0
aF0.0
aF0.0
aF0.0
aF0.0
aF0.0
aF0.0
aF0.0
aF0.0
aF0.0
aF0.0
aF0.0
aF0.0
aF0.0
aF0.0
aF0.0
aF0.0
aF0.0
aF0.0
aF0.0
aF0.0
aF0.0
aF0.0
aF0.0
aF0.0
aF0.0
aF0.0
aF0.0
aF0.0
aF0.0
aF0.0
aF0.0
aF0.0
aF0.0
aF0.0
aF0.0
aF0.0
aF0.0
aF0.0
aF0.0
aF0.0
aF0.0
aF0.0
aF0.0
aF0.0
aF0.0
aF0.0
aF0.0
aF0.0
aF0.0
aF0.0
aF0.0
aF0.0
aF0.0
aF0.0
aF0.0
aF0.0
aF0.0
aF0.0
aF0.0
aF0.0
aF0.0
aF0.0
aF0.0
aF0.0
aF0.0
aF0.0
aF0.0
aF0.0
aF0.0
aF0.0
aF0.0
aF0.0
aF0.0
aF0.0
aF0.0
aF0.0
aF0.0
aF0.0
aF0.0
aF0.0
aF0.0
aF0.0
aF0.0
aF0.0
aF0.0
aF0.0
aF0.0
aF0.0
aF0.0
aF0.0
aF0.0
aF0.0
aF0.0
aF0.0
aF0.0
aF0.0
aF0.0
aF0.0
aF0.0
aF0.0
aF0.0
aF0.0
aF0.0
aF0.0
aF0.0
aF0.0
aF0.0
aF0.0
aF0.0
aF0.0
aF0.0
aF0.0
aF0.0
aF0.0
aF0.0
aF0.0
aF0.0
aF0.0
aF0.0
aF0.0
aF0.0
aF0.0
aF0.0
aF0.0
aF0.0
aF0.0
aF0.0
aF0.0
aF0.0
aF0.0
aF0.0
aF0.0
aF0.0
aF0.0
aF0.0
aF0.0
aF0.0
aF0.0
aF0.0
aF0.0
aF0.0
aF0.0
aF0.0
aF0.0
aF0.0
aF0.0
aF0.0
aF0.0
aF0.0
aF0.0
aF0.0
aF0.0
aF0.0
aF0.0
aF0.0
aF0.0
aF0.0
aF0.0
aF0.0
aF0.0
aF0.0
aF0.0
aF0.0
aF0.0
aF0.0
aF0.0
aF0.0
aF0.0
aF0.0
aF0.0
aF0.0
aF0.0
aF0.0
aF0.0
aF0.0
aF0.0
aF0.0
aF0.0
aF0.0
aF0.0
aF0.0
aF0.0
aF0.0
asVb
p9
F-1.1648924879118636
sVcount
p10
I0
sVcosts
p11
(lp12
sVmu
p13
F0.0
sVcost
p14
F0.21126950566648464
sb.
